target datalayout = "e-m:e-p270:32:32-p271:32:32-p272:64:64-i64:64-i128:128-f80:128-n8:16:32:64-S128"
target triple = "x86_64-unknown-linux-gnu"

; Function Attrs: mustprogress uwtable
define dso_local noundef zeroext i1 @_ZN3net12HpackDecoder23DecodeNextOpcodeWrapperEPNS_16HpackInputStreamE(ptr noundef nonnull align 8 dereferenceable(480) %this, ptr noundef %input_stream) #0 align 2 {
entry:
  %retval = alloca i1, align 1
  %this.addr = alloca ptr, align 8
  %input_stream.addr = alloca ptr, align 8
  store ptr %this, ptr %this.addr, align 8
  store ptr %input_stream, ptr %input_stream.addr, align 8
  %this1 = load ptr, ptr %this.addr, align 8
  %0 = load ptr, ptr %input_stream.addr, align 8
  %call = call noundef zeroext i1 @_ZN3net12HpackDecoder16DecodeNextOpcodeEPNS_16HpackInputStreamE(ptr noundef nonnull align 8 dereferenceable(480) %this1, ptr noundef %0)
  br i1 %call, label %if.then, label %if.end

if.then:                                          ; preds = %entry
  %1 = load ptr, ptr %input_stream.addr, align 8
  call void @_ZN3net16HpackInputStream19MarkCurrentPositionEv(ptr noundef nonnull align 8 dereferenceable(33) %1)
  store i1 true, ptr %retval, align 1
  br label %return

if.end:                                           ; preds = %entry
  store i1 false, ptr %retval, align 1
  br label %return

return:                                           ; preds = %if.end, %if.then
  %2 = load i1, ptr %retval, align 1
  ret i1 %2
}