; Function Attrs: mustprogress uwtable
define dso_local noundef zeroext i1 @_ZN3net12HpackDecoder23DecodeNextOpcodeWrapperEPNS_16HpackInputStreamE(ptr noundef nonnull align 8 dereferenceable(480) %this, ptr noundef nonnull %input_stream) local_unnamed_addr #0 align 2 {
entry:
  %call = tail call noundef zeroext i1 @_ZN3net12HpackDecoder16DecodeNextOpcodeEPNS_16HpackInputStreamE(ptr noundef nonnull align 8 dereferenceable(480) %this, ptr noundef %input_stream)
  br i1 %call, label %if.then, label %return

if.then:                                          ; preds = %entry
  tail call void @_ZN3net16HpackInputStream19MarkCurrentPositionEv(ptr noundef nonnull align 8 dereferenceable(33) %input_stream)
  br label %return

return:                                           ; preds = %entry, %if.then
  ret i1 %call
}